#include <math.h>
#include <stdio.h>
#include <stdlib.h>
#include <string.h>
#include <iostream>
using namespace std;

int main()
{
	int w;
	cin>>w;
	int aa[12]={31,28,31,30,31,30,31,31,30,31,30,31};
	int m=0;
	for(int i=0;i<=11;i++)
	{
		for(int j=0;j<=i;j++)
			m=m+aa[j];
		m=m-(aa[i]-13+1);
		if((m+(w-5))%7==0)
			cout<<i+1<<endl;
		m=0;
	}
	return 0;
}